; Function Attrs: mustprogress nofree norecurse nosync nounwind willreturn memory(argmem: write) uwtable
define hidden void @SDL_GetJoystickGUIDInfo_REAL(i64 %0, i64 %1, ptr noundef writeonly captures(address_is_null) %2, ptr noundef writeonly captures(address_is_null) %3, ptr noundef writeonly captures(address_is_null) %4, ptr noundef writeonly captures(address_is_null) %5) local_unnamed_addr #10 {
  %.sroa.0.0.extract.trunc = trunc i64 %0 to i32
  %.sroa.2.0.extract.shift = lshr i64 %0, 16
  %.sroa.2.0.extract.trunc = trunc i64 %.sroa.2.0.extract.shift to i16
  %.sroa.4.0.extract.shift = lshr i64 %0, 32
  %.sroa.4.0.extract.trunc = trunc i64 %.sroa.4.0.extract.shift to i16
  %.sroa.6.8.extract.trunc = trunc i64 %1 to i16
  %.sroa.9.8.extract.shift = lshr i64 %1, 32
  %.sroa.9.8.extract.trunc = trunc i64 %.sroa.9.8.extract.shift to i16
  %7 = and i32 %.sroa.0.0.extract.trunc, 65535
  %8 = icmp samesign ult i32 %7, 32
  %9 = icmp eq i32 %7, 255
  %or.cond = or i1 %8, %9
  %10 = icmp ult i64 %0, 281474976710656
  %or.cond61 = and i1 %10, %or.cond
  %11 = and i64 %1, 4294901760
  %12 = icmp eq i64 %11, 0
  %or.cond63 = select i1 %or.cond61, i1 %12, i1 false
  %.not57 = icmp eq ptr %2, null
  br i1 %or.cond63, label %13, label %20

13:                                               ; preds = %6
  br i1 %.not57, label %15, label %14

14:                                               ; preds = %13
  store i16 %.sroa.4.0.extract.trunc, ptr %2, align 2
  br label %15

15:                                               ; preds = %14, %13
  %.not58 = icmp eq ptr %3, null
  br i1 %.not58, label %17, label %16

16:                                               ; preds = %15
  store i16 %.sroa.6.8.extract.trunc, ptr %3, align 2
  br label %17

17:                                               ; preds = %16, %15
  %.not59 = icmp eq ptr %4, null
  br i1 %.not59, label %19, label %18

18:                                               ; preds = %17
  store i16 %.sroa.9.8.extract.trunc, ptr %4, align 2
  br label %19

19:                                               ; preds = %18, %17
  %.not60 = icmp eq ptr %5, null
  br i1 %.not60, label %35, label %.sink.split

20:                                               ; preds = %6
  br i1 %or.cond, label %21, label %28

21:                                               ; preds = %20
  br i1 %.not57, label %23, label %22

22:                                               ; preds = %21
  store i16 0, ptr %2, align 2
  br label %23

23:                                               ; preds = %22, %21
  %.not54 = icmp eq ptr %3, null
  br i1 %.not54, label %25, label %24

24:                                               ; preds = %23
  store i16 0, ptr %3, align 2
  br label %25

25:                                               ; preds = %24, %23
  %.not55 = icmp eq ptr %4, null
  br i1 %.not55, label %27, label %26

26:                                               ; preds = %25
  store i16 0, ptr %4, align 2
  br label %27

27:                                               ; preds = %26, %25
  %.not56 = icmp eq ptr %5, null
  br i1 %.not56, label %35, label %.sink.split

28:                                               ; preds = %20
  br i1 %.not57, label %30, label %29

29:                                               ; preds = %28
  store i16 0, ptr %2, align 2
  br label %30

30:                                               ; preds = %29, %28
  %.not50 = icmp eq ptr %3, null
  br i1 %.not50, label %32, label %31

31:                                               ; preds = %30
  store i16 0, ptr %3, align 2
  br label %32

32:                                               ; preds = %31, %30
  %.not51 = icmp eq ptr %4, null
  br i1 %.not51, label %34, label %33

33:                                               ; preds = %32
  store i16 0, ptr %4, align 2
  br label %34

34:                                               ; preds = %33, %32
  %.not52 = icmp eq ptr %5, null
  br i1 %.not52, label %35, label %.sink.split

.sink.split:                                      ; preds = %34, %27, %19
  %.sroa.2.0.extract.trunc.sink = phi i16 [ %.sroa.2.0.extract.trunc, %19 ], [ %.sroa.2.0.extract.trunc, %27 ], [ 0, %34 ]
  store i16 %.sroa.2.0.extract.trunc.sink, ptr %5, align 2
  br label %35

35:                                               ; preds = %.sink.split, %27, %34, %19
  ret void
}